; Function Attrs: nounwind uwtable
define noalias nonnull ptr @l_Lean_Omega_Constraint_flip(ptr noundef readonly captures(none) %0) local_unnamed_addr #1 {
  %2 = getelementptr inbounds nuw i8, ptr %0, i64 8
  %3 = getelementptr inbounds nuw i8, ptr %0, i64 16
  %4 = load ptr, ptr %3, align 8, !tbaa !11
  %5 = load ptr, ptr %2, align 8, !tbaa !11
  %6 = ptrtoint ptr %5 to i64
  %7 = and i64 %6, 1
  %.not = icmp eq i64 %7, 0
  br i1 %.not, label %8, label %lean_inc.exit9

8:                                                ; preds = %1
  %.val.i = load i32, ptr %5, align 4, !tbaa !6
  %9 = icmp sgt i32 %.val.i, 0
  br i1 %9, label %10, label %12, !prof !5

10:                                               ; preds = %8
  %11 = add nuw i32 %.val.i, 1
  store i32 %11, ptr %5, align 4, !tbaa !6
  br label %lean_inc.exit9

12:                                               ; preds = %8
  %.not.i = icmp eq i32 %.val.i, 0
  br i1 %.not.i, label %lean_inc.exit9, label %13

13:                                               ; preds = %12
  tail call void @lean_inc_ref_cold(ptr noundef nonnull %5) #4
  br label %lean_inc.exit9

lean_inc.exit9:                                   ; preds = %13, %12, %10, %1
  %14 = ptrtoint ptr %4 to i64
  %15 = and i64 %14, 1
  %.not13 = icmp eq i64 %15, 0
  br i1 %.not13, label %16, label %lean_inc.exit

16:                                               ; preds = %lean_inc.exit9
  %.val.i10 = load i32, ptr %4, align 4, !tbaa !6
  %17 = icmp sgt i32 %.val.i10, 0
  br i1 %17, label %18, label %20, !prof !5

18:                                               ; preds = %16
  %19 = add nuw i32 %.val.i10, 1
  store i32 %19, ptr %4, align 4, !tbaa !6
  br label %lean_inc.exit

20:                                               ; preds = %16
  %.not.i11 = icmp eq i32 %.val.i10, 0
  br i1 %.not.i11, label %lean_inc.exit, label %21

21:                                               ; preds = %20
  tail call void @lean_inc_ref_cold(ptr noundef nonnull %4) #4
  br label %lean_inc.exit

lean_inc.exit:                                    ; preds = %21, %20, %18, %lean_inc.exit9
  tail call void @lean_inc_heartbeat() #4
  %22 = tail call noalias ptr @mi_malloc_small(i64 noundef 24) #4
  %23 = icmp eq ptr %22, null
  br i1 %23, label %24, label %lean_alloc_ctor.exit

24:                                               ; preds = %lean_inc.exit
  tail call void @lean_internal_panic_out_of_memory() #5
  unreachable

lean_alloc_ctor.exit:                             ; preds = %lean_inc.exit
  %25 = getelementptr inbounds nuw i8, ptr %22, i64 4
  store i32 1, ptr %22, align 4, !tbaa !6
  store i32 131096, ptr %25, align 4
  %26 = getelementptr inbounds nuw i8, ptr %22, i64 8
  store ptr %4, ptr %26, align 8, !tbaa !11
  %27 = getelementptr inbounds nuw i8, ptr %22, i64 16
  store ptr %5, ptr %27, align 8, !tbaa !11
  ret ptr %22
}